Certificate:
    Data:
        Version: 3 (0x2)
        Serial Number:
            14:64:48:02:63:ba:8b:a9:88:2a:ac:09:b9:d7:40:c9
    Signature Algorithm: sha256WithRSAEncryption
        Issuer: CN=james123
        Validity
            Not Before: Mar  3 12:49:30 2019 GMT
            Not After : Feb 28 12:49:30 2029 GMT
        Subject: CN=james
        Subject Public Key Info:
            Public Key Algorithm: rsaEncryption
                Public-Key: (2048 bit)
                Modulus:
                    00:9a:fb:7e:10:68:37:3d:6c:88:c1:63:b7:54:42:
                    61:8c:d5:06:8c:e3:52:0c:cb:7d:4b:bc:94:a7:42:
                    3a:31:7a:52:ec:b7:a7:88:c8:20:23:44:56:1c:de:
                    bb:9b:49:bf:26:b6:27:e1:68:3c:15:f1:8f:b0:60:
                    af:84:3d:94:4a:fc:ec:a7:87:55:23:b2:41:99:9a:
                    3b:e8:15:f5:e7:ca:39:4e:b5:59:fe:af:dd:c1:b2:
                    e4:ac:9a:3e:db:28:46:2d:4e:b9:8d:6c:5a:ce:7e:
                    cf:cd:bd:ae:0e:95:f1:93:55:35:74:cb:15:26:cf:
                    3b:7e:c7:59:e8:f1:f2:8e:33:c4:51:f1:95:a7:d0:
                    a0:1d:34:ef:42:56:4a:8c:db:ff:8f:09:3b:b9:1e:
                    56:0f:54:66:7d:0f:98:63:c9:b0:81:09:72:df:3e:
                    a7:b5:76:d6:69:01:ba:84:3e:27:ec:5f:98:d7:e0:
                    79:3c:58:48:98:dc:76:5d:21:83:62:bf:af:d9:ad:
                    dd:da:e2:0b:74:00:0a:ff:b7:0c:e1:d0:89:ba:78:
                    dd:9d:cc:de:f3:fc:aa:56:f8:1f:63:52:35:21:02:
                    cc:90:a2:0d:86:4f:ac:18:53:62:43:ad:20:7d:c9:
                    ed:0c:5d:b3:75:ea:65:25:d9:8c:d2:ff:0a:7d:1b:
                    0e:5d
                Exponent: 65537 (0x10001)
        X509v3 extensions:
            X509v3 Basic Constraints: 
                CA:FALSE
            X509v3 Subject Key Identifier: 
                7C:32:B2:2F:AD:AC:5D:2C:DB:39:2A:CD:9A:68:27:C0:A7:EE:BA:ED
            X509v3 Authority Key Identifier: 
                keyid:E5:0C:94:33:7F:A4:C4:12:0F:4B:7F:88:10:85:6E:68:77:D8:CA:AC
                DirName:/CN=james123
                serial:EF:A0:5E:40:AA:6C:C4:36

            X509v3 Extended Key Usage: 
                TLS Web Client Authentication
            X509v3 Key Usage: 
                Digital Signature
    Signature Algorithm: sha256WithRSAEncryption
         69:40:8e:16:69:8d:a6:2a:4b:58:dc:f5:9a:32:66:d0:dc:5c:
         c8:db:26:2b:94:bc:8f:bf:29:d5:43:03:03:18:f8:42:1f:31:
         86:68:aa:18:61:df:c0:ae:99:f5:56:ae:42:cc:52:56:25:a8:
         0b:2f:3e:05:b7:14:80:09:62:1e:f8:b6:8d:70:a5:8d:bc:af:
         6c:83:ce:de:3b:93:07:24:3e:78:09:46:c0:b4:3f:a3:b8:64:
         df:b3:65:bc:d9:5a:9b:2d:03:21:84:45:ef:2e:f7:ee:40:dd:
         ca:b5:5d:01:b6:7b:02:c9:6b:63:29:7a:25:89:b2:69:77:14:
         05:2a:16:bd:26:26:55:4c:ac:73:08:0d:35:e7:91:7d:ee:0e:
         bb:de:9c:9b:63:43:4a:b7:42:3e:d4:a4:c2:77:02:36:80:0f:
         0c:34:f7:2e:f7:8f:a1:bf:a0:75:ef:b9:b7:2c:ce:99:ca:42:
         9c:d9:2c:81:66:7e:2d:41:09:ef:0d:dd:49:2d:bc:17:2c:ec:
         c3:4e:0e:82:8d:88:34:2b:e2:2b:51:ec:48:87:5d:b5:ba:e1:
         d5:70:5f:91:5c:40:93:ae:c9:61:26:45:91:cc:17:5f:9d:4d:
         3f:b1:d1:58:46:8b:8d:ca:c3:37:be:a0:ba:d0:c7:41:4a:79:
         1e:40:1c:cf
-----BEGIN CERTIFICATE-----
MIIDQjCCAiqgAwIBAgIQFGRIAmO6i6mIKqwJuddAyTANBgkqhkiG9w0BAQsFADAT
MREwDwYDVQQDDAhqYW1lczEyMzAeFw0xOTAzMDMxMjQ5MzBaFw0yOTAyMjgxMjQ5
MzBaMBAxDjAMBgNVBAMMBWphbWVzMIIBIjANBgkqhkiG9w0BAQEFAAOCAQ8AMIIB
CgKCAQEAmvt+EGg3PWyIwWO3VEJhjNUGjONSDMt9S7yUp0I6MXpS7LeniMggI0RW
HN67m0m/JrYn4Wg8FfGPsGCvhD2USvzsp4dVI7JBmZo76BX158o5TrVZ/q/dwbLk
rJo+2yhGLU65jWxazn7Pzb2uDpXxk1U1dMsVJs87fsdZ6PHyjjPEUfGVp9CgHTTv
QlZKjNv/jwk7uR5WD1RmfQ+YY8mwgQly3z6ntXbWaQG6hD4n7F+Y1+B5PFhImNx2
XSGDYr+v2a3d2uILdAAK/7cM4dCJunjdncze8/yqVvgfY1I1IQLMkKINhk+sGFNi
Q60gfcntDF2zdeplJdmM0v8KfRsOXQIDAQABo4GUMIGRMAkGA1UdEwQCMAAwHQYD
VR0OBBYEFHwysi+trF0s2zkqzZpoJ8Cn7rrtMEMGA1UdIwQ8MDqAFOUMlDN/pMQS
D0t/iBCFbmh32MqsoRekFTATMREwDwYDVQQDDAhqYW1lczEyM4IJAO+gXkCqbMQ2
MBMGA1UdJQQMMAoGCCsGAQUFBwMCMAsGA1UdDwQEAwIHgDANBgkqhkiG9w0BAQsF
AAOCAQEAaUCOFmmNpipLWNz1mjJm0NxcyNsmK5S8j78p1UMDAxj4Qh8xhmiqGGHf
wK6Z9VauQsxSViWoCy8+BbcUgAliHvi2jXCljbyvbIPO3juTByQ+eAlGwLQ/o7hk
37NlvNlamy0DIYRF7y737kDdyrVdAbZ7AslrYyl6JYmyaXcUBSoWvSYmVUyscwgN
NeeRfe4Ou96cm2NDSrdCPtSkwncCNoAPDDT3LvePob+gde+5tyzOmcpCnNksgWZ+
LUEJ7w3dSS28Fyzsw04Ogo2INCviK1HsSIddtbrh1XBfkVxAk67JYSZFkcwXX51N
P7HRWEaLjcrDN76gutDHQUp5HkAczw==
-----END CERTIFICATE-----
