Certificate:
    Data:
        Version: 3 (0x2)
        Serial Number:
            32:7f:96:02:79:05:78:8a:f8:87:e6:a1:ad:4f:c1:51
    Signature Algorithm: sha256WithRSAEncryption
        Issuer: CN=james
        Validity
            Not Before: Feb 28 10:36:37 2019 GMT
            Not After : Feb 25 10:36:37 2029 GMT
        Subject: CN=james
        Subject Public Key Info:
            Public Key Algorithm: rsaEncryption
                Public-Key: (2048 bit)
                Modulus:
                    00:c7:01:7b:b5:87:80:46:44:15:c9:d0:01:01:17:
                    6a:4e:85:c4:8f:2f:ef:52:70:d8:ea:b4:a3:56:a1:
                    39:eb:b7:5e:80:4f:e9:ab:86:a4:c5:ba:0a:52:b5:
                    ff:f7:36:50:b7:f8:83:38:fd:d5:f5:71:39:88:28:
                    fb:4d:89:99:f1:31:a1:01:8c:9f:10:9c:b3:ea:e1:
                    5b:29:a9:1a:41:be:a4:d8:e6:3f:80:10:cb:08:c7:
                    27:30:99:97:d2:e9:1d:a6:7d:0b:01:ce:be:f0:4e:
                    7a:ae:d9:d2:1a:67:19:f9:83:bc:37:62:b2:36:4a:
                    f0:4c:b3:61:10:6f:db:aa:89:fd:fe:81:84:40:23:
                    ca:f2:ac:8d:9b:e4:a5:70:f7:88:11:48:20:2b:4f:
                    95:0a:31:ff:4c:b7:b6:59:d2:2a:8a:18:7b:88:b6:
                    18:a6:83:c0:c1:91:b0:88:41:24:c2:9e:19:88:54:
                    81:00:a9:5c:bf:6e:ac:9b:74:8f:ad:c2:0a:28:fd:
                    2c:1f:d9:27:e3:15:99:03:44:37:8b:8b:09:6a:42:
                    54:4e:12:d4:13:48:57:b5:e8:88:6c:7e:fe:c8:14:
                    83:69:d6:80:d5:f7:fc:52:3e:18:b9:c9:80:02:a2:
                    7b:67:37:8e:45:87:cd:66:8a:8b:4d:f9:a1:7a:d1:
                    ca:97
                Exponent: 65537 (0x10001)
        X509v3 extensions:
            X509v3 Basic Constraints: 
                CA:FALSE
            X509v3 Subject Key Identifier: 
                D6:16:40:C4:86:26:75:B3:84:1B:4B:E2:DB:A8:C8:10:D0:02:94:A2
            X509v3 Authority Key Identifier: 
                keyid:06:69:C1:64:08:6B:4B:17:36:23:13:FF:8A:FD:93:F9:23:6B:5A:C4
                DirName:/CN=james
                serial:9E:E2:E8:7E:ED:76:C2:6B

            X509v3 Extended Key Usage: 
                TLS Web Client Authentication
            X509v3 Key Usage: 
                Digital Signature
    Signature Algorithm: sha256WithRSAEncryption
         3a:b3:e4:9e:5a:6b:10:63:fb:8f:1b:2a:07:6b:07:25:f7:37:
         29:60:05:0f:e0:f3:67:d6:8f:91:ff:4f:3f:88:9a:3f:3a:46:
         9f:09:37:9b:ff:ee:26:7c:4b:6a:bc:be:4c:37:95:50:12:15:
         bf:8e:bc:8b:28:cf:11:bd:3a:fe:44:e3:05:be:91:5e:41:2b:
         60:78:ca:0c:46:f5:ba:de:84:4e:2c:a1:90:49:3f:ae:b6:5f:
         55:0e:f7:ae:4a:c2:a3:4a:62:81:31:1f:94:79:04:0b:04:7f:
         4e:5d:11:d2:ed:fc:20:29:d9:4a:d9:47:c0:1a:a3:61:e5:b3:
         2e:a5:f3:06:fb:74:d9:96:64:c4:8d:6f:94:13:51:05:21:f4:
         8d:f3:c9:d7:86:c5:8e:dc:66:1a:63:6b:c8:1f:52:4b:08:1a:
         fe:e9:1d:18:12:1f:37:bf:68:84:1e:d2:eb:a5:cc:5e:95:29:
         b5:fd:d4:cc:0f:b1:ea:6b:01:99:a5:e5:ce:c7:11:73:8e:1a:
         4b:15:e4:26:dc:6d:fc:ce:c9:7f:d4:5f:b2:fd:80:cb:0c:77:
         53:0c:8e:df:28:3f:7b:9b:a8:c5:f8:34:ad:e7:bc:a7:2b:97:
         57:73:47:96:00:82:43:26:d9:d3:11:29:d4:ce:b6:c4:27:5f:
         03:7d:3f:21
-----BEGIN CERTIFICATE-----
MIIDPDCCAiSgAwIBAgIQMn+WAnkFeIr4h+ahrU/BUTANBgkqhkiG9w0BAQsFADAQ
MQ4wDAYDVQQDDAVqYW1lczAeFw0xOTAyMjgxMDM2MzdaFw0yOTAyMjUxMDM2Mzda
MBAxDjAMBgNVBAMMBWphbWVzMIIBIjANBgkqhkiG9w0BAQEFAAOCAQ8AMIIBCgKC
AQEAxwF7tYeARkQVydABARdqToXEjy/vUnDY6rSjVqE567degE/pq4akxboKUrX/
9zZQt/iDOP3V9XE5iCj7TYmZ8TGhAYyfEJyz6uFbKakaQb6k2OY/gBDLCMcnMJmX
0ukdpn0LAc6+8E56rtnSGmcZ+YO8N2KyNkrwTLNhEG/bqon9/oGEQCPK8qyNm+Sl
cPeIEUggK0+VCjH/TLe2WdIqihh7iLYYpoPAwZGwiEEkwp4ZiFSBAKlcv26sm3SP
rcIKKP0sH9kn4xWZA0Q3i4sJakJUThLUE0hXteiIbH7+yBSDadaA1ff8Uj4YucmA
AqJ7ZzeORYfNZoqLTfmhetHKlwIDAQABo4GRMIGOMAkGA1UdEwQCMAAwHQYDVR0O
BBYEFNYWQMSGJnWzhBtL4tuoyBDQApSiMEAGA1UdIwQ5MDeAFAZpwWQIa0sXNiMT
/4r9k/kja1rEoRSkEjAQMQ4wDAYDVQQDDAVqYW1lc4IJAJ7i6H7tdsJrMBMGA1Ud
JQQMMAoGCCsGAQUFBwMCMAsGA1UdDwQEAwIHgDANBgkqhkiG9w0BAQsFAAOCAQEA
OrPknlprEGP7jxsqB2sHJfc3KWAFD+DzZ9aPkf9PP4iaPzpGnwk3m//uJnxLary+
TDeVUBIVv468iyjPEb06/kTjBb6RXkErYHjKDEb1ut6ETiyhkEk/rrZfVQ73rkrC
o0pigTEflHkECwR/Tl0R0u38ICnZStlHwBqjYeWzLqXzBvt02ZZkxI1vlBNRBSH0
jfPJ14bFjtxmGmNryB9SSwga/ukdGBIfN79ohB7S66XMXpUptf3UzA+x6msBmaXl
zscRc44aSxXkJtxt/M7Jf9Rfsv2Aywx3UwyO3yg/e5uoxfg0ree8pyuXV3NHlgCC
QybZ0xEp1M62xCdfA30/IQ==
-----END CERTIFICATE-----
