Certificate:
    Data:
        Version: 3 (0x2)
        Serial Number:
            fd:dd:2e:e0:1a:22:04:77:f9:db:88:9e:29:fd:e5:3c
    Signature Algorithm: sha256WithRSAEncryption
        Issuer: CN=james123
        Validity
            Not Before: Mar  3 12:49:09 2019 GMT
            Not After : Feb 28 12:49:09 2029 GMT
        Subject: CN=server
        Subject Public Key Info:
            Public Key Algorithm: rsaEncryption
                Public-Key: (2048 bit)
                Modulus:
                    00:98:f0:18:79:a4:3d:05:4f:e2:5b:ef:ad:fe:7a:
                    54:ec:9e:c2:6b:14:6b:2c:ed:b6:f3:fd:03:3e:07:
                    44:fc:a4:e2:99:a6:6f:db:1e:7f:f1:32:2a:50:bc:
                    1b:6e:6d:0b:c7:1e:c4:4f:65:b7:c3:16:a9:6b:cf:
                    93:08:e1:8e:6f:3c:66:4f:2e:35:09:e2:7a:ce:27:
                    e0:84:eb:71:e8:2f:76:2f:58:93:93:bd:31:44:d5:
                    c5:ae:f7:06:35:a7:14:86:03:76:7b:ac:4e:d1:f2:
                    7d:ae:61:69:41:c9:6c:91:e7:b2:49:11:e2:ef:60:
                    2c:21:69:5e:b5:6b:45:48:ef:54:59:59:42:87:8f:
                    15:0e:54:6d:93:2a:62:f9:d0:c1:6d:f3:bb:33:70:
                    c0:67:02:0d:27:40:56:ea:53:01:b8:75:d8:a8:4a:
                    1d:85:7e:59:3b:ce:8c:d8:e3:9b:10:63:08:13:90:
                    b8:8c:be:34:52:2b:bb:2f:aa:26:ca:a0:93:9e:99:
                    ee:dc:a0:d1:04:c2:ee:e6:35:49:c7:21:07:3f:7c:
                    9b:4a:84:a6:8a:ec:ba:26:e0:e3:b5:57:ec:88:41:
                    f9:4d:b3:f9:13:9a:3a:f1:a3:14:bc:cb:8f:08:aa:
                    a5:68:95:98:bd:56:dc:c7:eb:6a:e9:aa:0c:63:a9:
                    87:4d
                Exponent: 65537 (0x10001)
        X509v3 extensions:
            X509v3 Basic Constraints: 
                CA:FALSE
            X509v3 Subject Key Identifier: 
                97:98:6B:9F:C1:DC:87:D8:54:59:65:C3:3E:91:46:9B:78:37:3C:4A
            X509v3 Authority Key Identifier: 
                keyid:E5:0C:94:33:7F:A4:C4:12:0F:4B:7F:88:10:85:6E:68:77:D8:CA:AC
                DirName:/CN=james123
                serial:EF:A0:5E:40:AA:6C:C4:36

            X509v3 Extended Key Usage: 
                TLS Web Server Authentication
            X509v3 Key Usage: 
                Digital Signature, Key Encipherment
            X509v3 Subject Alternative Name: 
                DNS:server
    Signature Algorithm: sha256WithRSAEncryption
         ab:ab:c3:ed:eb:f7:2b:12:b3:f0:70:7e:d9:1b:dd:53:cc:6d:
         a8:3e:05:f4:6d:3a:f2:21:cd:1e:e5:c1:6d:53:46:70:cd:69:
         8b:a5:a8:9a:f6:7f:90:c9:2f:48:9e:e1:c7:dc:16:4b:26:72:
         34:60:a6:a8:43:76:e6:17:be:b9:ef:a1:d4:3a:91:44:d8:d6:
         c9:e5:c5:de:9e:88:cc:16:5b:cf:f1:63:6b:33:da:c7:81:93:
         d0:06:7d:11:f2:89:2d:47:24:35:f1:86:9d:b6:ef:b8:40:9a:
         78:4a:fe:f4:e6:00:34:dc:97:a4:5e:4c:1e:f5:9c:8c:eb:47:
         cc:38:fc:9b:60:d9:b1:d8:a2:07:ee:ae:cf:64:03:2b:03:32:
         fa:9e:95:93:ea:05:a3:69:38:86:d2:88:a8:35:c3:63:76:31:
         e9:59:2f:69:0f:e0:34:c5:fc:4a:2e:dd:ae:e3:24:d4:42:b2:
         3e:b9:36:df:08:df:79:16:f2:bd:1a:d7:53:fa:8e:66:ee:35:
         64:8a:a3:4f:63:77:a7:9a:56:70:a5:7e:5b:eb:3a:ca:cf:55:
         ce:99:aa:1f:49:e8:1b:d6:47:05:27:4e:12:42:48:a0:e5:bb:
         d1:d7:5f:e0:b3:5d:e0:a8:4f:06:e8:ab:2c:c2:42:89:bc:65:
         ad:68:2d:2c
-----BEGIN CERTIFICATE-----
MIIDVzCCAj+gAwIBAgIRAP3dLuAaIgR3+duInin95TwwDQYJKoZIhvcNAQELBQAw
EzERMA8GA1UEAwwIamFtZXMxMjMwHhcNMTkwMzAzMTI0OTA5WhcNMjkwMjI4MTI0
OTA5WjARMQ8wDQYDVQQDDAZzZXJ2ZXIwggEiMA0GCSqGSIb3DQEBAQUAA4IBDwAw
ggEKAoIBAQCY8Bh5pD0FT+Jb763+elTsnsJrFGss7bbz/QM+B0T8pOKZpm/bHn/x
MipQvBtubQvHHsRPZbfDFqlrz5MI4Y5vPGZPLjUJ4nrOJ+CE63HoL3YvWJOTvTFE
1cWu9wY1pxSGA3Z7rE7R8n2uYWlByWyR57JJEeLvYCwhaV61a0VI71RZWUKHjxUO
VG2TKmL50MFt87szcMBnAg0nQFbqUwG4ddioSh2Fflk7zozY45sQYwgTkLiMvjRS
K7svqibKoJOeme7coNEEwu7mNUnHIQc/fJtKhKaK7Lom4OO1V+yIQflNs/kTmjrx
oxS8y48IqqVolZi9VtzH62rpqgxjqYdNAgMBAAGjgacwgaQwCQYDVR0TBAIwADAd
BgNVHQ4EFgQUl5hrn8Hch9hUWWXDPpFGm3g3PEowQwYDVR0jBDwwOoAU5QyUM3+k
xBIPS3+IEIVuaHfYyqyhF6QVMBMxETAPBgNVBAMMCGphbWVzMTIzggkA76BeQKps
xDYwEwYDVR0lBAwwCgYIKwYBBQUHAwEwCwYDVR0PBAQDAgWgMBEGA1UdEQQKMAiC
BnNlcnZlcjANBgkqhkiG9w0BAQsFAAOCAQEAq6vD7ev3KxKz8HB+2RvdU8xtqD4F
9G068iHNHuXBbVNGcM1pi6WomvZ/kMkvSJ7hx9wWSyZyNGCmqEN25he+ue+h1DqR
RNjWyeXF3p6IzBZbz/FjazPax4GT0AZ9EfKJLUckNfGGnbbvuECaeEr+9OYANNyX
pF5MHvWcjOtHzDj8m2DZsdiiB+6uz2QDKwMy+p6Vk+oFo2k4htKIqDXDY3Yx6Vkv
aQ/gNMX8Si7druMk1EKyPrk23wjfeRbyvRrXU/qOZu41ZIqjT2N3p5pWcKV+W+s6
ys9VzpmqH0noG9ZHBSdOEkJIoOW70ddf4LNd4KhPBuirLMJCibxlrWgtLA==
-----END CERTIFICATE-----
