Certificate:
    Data:
        Version: 3 (0x2)
        Serial Number:
            22:b6:0e:75:34:9c:03:bf:41:b0:bc:54:09:a5:d4:50
    Signature Algorithm: sha256WithRSAEncryption
        Issuer: CN=james
        Validity
            Not Before: Feb 28 10:35:11 2019 GMT
            Not After : Feb 25 10:35:11 2029 GMT
        Subject: CN=server
        Subject Public Key Info:
            Public Key Algorithm: rsaEncryption
                Public-Key: (2048 bit)
                Modulus:
                    00:c7:e5:c4:23:e8:40:82:41:5d:b8:d0:58:6d:94:
                    e4:b1:42:f6:e0:5d:4c:98:47:37:eb:fc:5d:70:a9:
                    6a:39:cd:ea:50:69:db:2e:71:af:7e:92:53:ad:5b:
                    f1:c9:fc:55:f9:8a:4c:a8:b2:72:6a:00:a3:ff:fb:
                    96:81:91:c7:b7:e3:fa:18:b7:ce:40:79:9b:7c:39:
                    fe:d3:53:5e:40:11:31:1c:b0:31:52:69:c2:ea:e9:
                    e3:1a:99:d3:ef:50:de:fc:f1:16:1b:50:e5:c7:af:
                    b3:b7:c2:76:f4:e1:f4:4f:1b:b0:0f:2c:70:7a:5f:
                    e6:6c:b1:8b:e3:d4:3b:84:ea:9b:21:0b:26:b0:91:
                    fb:8f:64:b3:f6:29:ea:9c:bb:64:35:02:b6:48:e9:
                    cd:13:e5:9a:64:cf:ba:55:62:f2:41:fe:b5:6d:24:
                    ed:40:bc:af:5b:8e:03:61:47:9b:d3:6f:34:b6:7a:
                    67:e6:55:1c:74:34:6b:1c:db:70:59:90:f0:9a:e3:
                    52:ea:d7:18:28:96:dc:b4:b1:23:d9:04:5e:7e:39:
                    31:26:82:8f:25:fa:64:15:bf:e9:11:2d:87:0b:c0:
                    40:2f:4a:8f:f4:20:75:57:07:b4:cc:2a:68:00:5e:
                    c9:07:e1:57:95:fc:f0:89:ef:5c:90:58:46:3c:46:
                    be:23
                Exponent: 65537 (0x10001)
        X509v3 extensions:
            X509v3 Basic Constraints: 
                CA:FALSE
            X509v3 Subject Key Identifier: 
                3D:42:30:BE:48:A8:AE:8B:C1:17:A3:06:71:AA:74:48:06:BC:E8:DB
            X509v3 Authority Key Identifier: 
                keyid:06:69:C1:64:08:6B:4B:17:36:23:13:FF:8A:FD:93:F9:23:6B:5A:C4
                DirName:/CN=james
                serial:9E:E2:E8:7E:ED:76:C2:6B

            X509v3 Extended Key Usage: 
                TLS Web Server Authentication
            X509v3 Key Usage: 
                Digital Signature, Key Encipherment
            X509v3 Subject Alternative Name: 
                DNS:server
    Signature Algorithm: sha256WithRSAEncryption
         3f:f0:74:8c:88:26:1b:86:ab:53:29:bc:5d:70:28:36:d0:21:
         af:47:c6:36:4c:be:89:f1:6b:26:30:29:55:14:69:4f:2f:05:
         79:00:e6:e7:f4:b6:33:a0:3a:2f:d6:0c:db:d7:08:89:56:a8:
         75:e0:f7:3f:6d:5f:5f:a5:1a:e2:37:16:c6:dc:dc:58:d9:53:
         8b:8b:e5:10:68:d1:f8:32:83:24:49:37:27:73:6a:45:50:eb:
         bb:06:63:d7:7b:91:a9:e4:72:fd:61:38:b5:09:90:44:04:87:
         ac:6d:0e:70:c6:fa:7a:72:39:15:87:69:a6:ac:32:16:29:5b:
         1b:4d:cf:9f:29:31:75:e2:27:09:4f:74:0e:60:8e:7e:27:59:
         80:bc:32:34:1c:52:ee:5d:9f:02:ac:69:f5:e9:f1:c7:0e:34:
         79:71:8f:dd:57:68:a1:39:da:25:9d:3b:cb:1c:13:fa:b6:d8:
         c9:53:1d:fe:69:46:81:57:39:c6:eb:b8:00:b3:87:89:d4:23:
         bc:24:5a:bd:cc:7b:59:08:3d:3b:dd:47:52:5f:44:42:f8:17:
         54:dd:53:ea:88:e6:26:3e:06:c6:dc:f4:25:90:f5:ae:7e:ac:
         91:30:e6:ea:e2:94:fa:4e:7d:34:8a:38:ec:66:2f:ea:29:4f:
         e8:e7:39:47
-----BEGIN CERTIFICATE-----
MIIDUDCCAjigAwIBAgIQIrYOdTScA79BsLxUCaXUUDANBgkqhkiG9w0BAQsFADAQ
MQ4wDAYDVQQDDAVqYW1lczAeFw0xOTAyMjgxMDM1MTFaFw0yOTAyMjUxMDM1MTFa
MBExDzANBgNVBAMMBnNlcnZlcjCCASIwDQYJKoZIhvcNAQEBBQADggEPADCCAQoC
ggEBAMflxCPoQIJBXbjQWG2U5LFC9uBdTJhHN+v8XXCpajnN6lBp2y5xr36SU61b
8cn8VfmKTKiycmoAo//7loGRx7fj+hi3zkB5m3w5/tNTXkARMRywMVJpwurp4xqZ
0+9Q3vzxFhtQ5cevs7fCdvTh9E8bsA8scHpf5myxi+PUO4TqmyELJrCR+49ks/Yp
6py7ZDUCtkjpzRPlmmTPulVi8kH+tW0k7UC8r1uOA2FHm9NvNLZ6Z+ZVHHQ0axzb
cFmQ8JrjUurXGCiW3LSxI9kEXn45MSaCjyX6ZBW/6REthwvAQC9Kj/QgdVcHtMwq
aABeyQfhV5X88InvXJBYRjxGviMCAwEAAaOBpDCBoTAJBgNVHRMEAjAAMB0GA1Ud
DgQWBBQ9QjC+SKiui8EXowZxqnRIBrzo2zBABgNVHSMEOTA3gBQGacFkCGtLFzYj
E/+K/ZP5I2taxKEUpBIwEDEOMAwGA1UEAwwFamFtZXOCCQCe4uh+7XbCazATBgNV
HSUEDDAKBggrBgEFBQcDATALBgNVHQ8EBAMCBaAwEQYDVR0RBAowCIIGc2VydmVy
MA0GCSqGSIb3DQEBCwUAA4IBAQA/8HSMiCYbhqtTKbxdcCg20CGvR8Y2TL6J8Wsm
MClVFGlPLwV5AObn9LYzoDov1gzb1wiJVqh14Pc/bV9fpRriNxbG3NxY2VOLi+UQ
aNH4MoMkSTcnc2pFUOu7BmPXe5Gp5HL9YTi1CZBEBIesbQ5wxvp6cjkVh2mmrDIW
KVsbTc+fKTF14icJT3QOYI5+J1mAvDI0HFLuXZ8CrGn16fHHDjR5cY/dV2ihOdol
nTvLHBP6ttjJUx3+aUaBVznG67gAs4eJ1CO8JFq9zHtZCD073UdSX0RC+BdU3VPq
iOYmPgbG3PQlkPWufqyRMObq4pT6Tn00ijjsZi/qKU/o5zlH
-----END CERTIFICATE-----
